target datalayout = "e-m:e-p270:32:32-p271:32:32-p272:64:64-i64:64-i128:128-f80:128-n8:16:32:64-S128"
target triple = "x86_64-pc-linux-gnu"

%struct._DtBauhausWidget = type { %struct._GtkDrawingArea, i32, ptr, ptr, i32, [256 x i8], i32, ptr, i32, ptr, ptr, i32, ptr, i32, i32, i32, %struct._GtkBorder, %struct._GtkBorder, i32, %union.dt_bauhaus_data_t }
%struct._GtkDrawingArea = type { %struct._GtkWidget, ptr }
%struct._GtkWidget = type { %struct._GObject, ptr }
%struct._GObject = type { %struct._GTypeInstance, i32, ptr }
%struct._GTypeInstance = type { ptr }
%struct._GtkBorder = type { i16, i16, i16, i16 }
%union.dt_bauhaus_data_t = type { %struct.dt_bauhaus_slider_data_t }
%struct.dt_bauhaus_slider_data_t = type { float, float, float, float, float, float, float, float, float, float, i32, ptr, i32, ptr, i8, ptr, float, float, i8, i32, ptr }
%struct.dt_bauhaus_combobox_data_t = type { i32, i32, i32, i32, ptr, i32, ptr, i32, ptr }
%struct.dt_bauhaus_combobox_entry_t = type { ptr, i32, i32, ptr, ptr }

@dt_bh_get_type.static_g_define_type_id = internal global i64 0, align 8

; Function Attrs: nounwind uwtable
define i64 @dt_bh_get_type() #0 {
  %1 = alloca i32, align 4
  %2 = alloca i64, align 8
  %3 = alloca ptr, align 8
  %4 = alloca i64, align 8
  %5 = alloca i64, align 8
  call void @llvm.lifetime.start.p0(i64 8, ptr %2) #13
  call void @llvm.lifetime.start.p0(i64 8, ptr %3) #13
  store ptr @dt_bh_get_type.static_g_define_type_id, ptr %3, align 8, !tbaa !6
  %6 = load ptr, ptr %3, align 8, !tbaa !6
  %7 = load atomic i64, ptr %6 seq_cst, align 8
  store i64 %7, ptr %2, align 8
  %8 = load i64, ptr %2, align 8, !tbaa !11
  store i64 %8, ptr %4, align 8, !tbaa !11
  call void @llvm.lifetime.end.p0(i64 8, ptr %3) #13
  call void @llvm.lifetime.end.p0(i64 8, ptr %2) #13
  %9 = load i64, ptr %4, align 8, !tbaa !11
  %10 = icmp ne i64 %9, 0
  br i1 %10, label %14, label %11

11:                                               ; preds = %0
  %12 = call i32 @g_once_init_enter(ptr noundef @dt_bh_get_type.static_g_define_type_id)
  %13 = icmp ne i32 %12, 0
  br label %14

14:                                               ; preds = %11, %0
  %15 = phi i1 [ false, %0 ], [ %13, %11 ]
  %16 = zext i1 %15 to i32
  store i32 %16, ptr %1, align 4, !tbaa !13
  %17 = load i32, ptr %1, align 4, !tbaa !13
  %18 = icmp ne i32 %17, 0
  br i1 %18, label %19, label %22

19:                                               ; preds = %14
  call void @llvm.lifetime.start.p0(i64 8, ptr %5) #13
  %20 = call i64 @dt_bh_get_type_once()
  store i64 %20, ptr %5, align 8, !tbaa !11
  %21 = load i64, ptr %5, align 8, !tbaa !11
  call void @g_once_init_leave(ptr noundef @dt_bh_get_type.static_g_define_type_id, i64 noundef %21)
  call void @llvm.lifetime.end.p0(i64 8, ptr %5) #13
  br label %22

22:                                               ; preds = %19, %14
  %23 = load i64, ptr @dt_bh_get_type.static_g_define_type_id, align 8, !tbaa !11
  ret i64 %23
}

; Function Attrs: nounwind uwtable
define internal ptr @_new_combobox_entry(ptr noundef %0, i32 noundef %1, i32 noundef %2, ptr noundef %3, ptr noundef %4) #0 {
  %6 = alloca ptr, align 8
  %7 = alloca i32, align 4
  %8 = alloca i32, align 4
  %9 = alloca ptr, align 8
  %10 = alloca ptr, align 8
  %11 = alloca ptr, align 8
  store ptr %0, ptr %6, align 8, !tbaa !171
  store i32 %1, ptr %7, align 4, !tbaa !13
  store i32 %2, ptr %8, align 4, !tbaa !13
  store ptr %3, ptr %9, align 8, !tbaa !32
  store ptr %4, ptr %10, align 8, !tbaa !32
  call void @llvm.lifetime.start.p0(i64 8, ptr %11) #13
  %12 = call noalias ptr @calloc(i64 noundef 1, i64 noundef 32) #15
  store ptr %12, ptr %11, align 8, !tbaa !174
  %13 = load ptr, ptr %11, align 8, !tbaa !174
  %14 = icmp ne ptr %13, null
  br i1 %14, label %15, label %32

15:                                               ; preds = %5
  %16 = load ptr, ptr %6, align 8, !tbaa !171
  %17 = call noalias ptr @g_strdup(ptr noundef %16)
  %18 = load ptr, ptr %11, align 8, !tbaa !174
  %19 = getelementptr inbounds nuw %struct.dt_bauhaus_combobox_entry_t, ptr %18, i32 0, i32 0
  store ptr %17, ptr %19, align 8, !tbaa !176
  %20 = load i32, ptr %7, align 4, !tbaa !13
  %21 = load ptr, ptr %11, align 8, !tbaa !174
  %22 = getelementptr inbounds nuw %struct.dt_bauhaus_combobox_entry_t, ptr %21, i32 0, i32 1
  store i32 %20, ptr %22, align 8, !tbaa !178
  %23 = load i32, ptr %8, align 4, !tbaa !13
  %24 = load ptr, ptr %11, align 8, !tbaa !174
  %25 = getelementptr inbounds nuw %struct.dt_bauhaus_combobox_entry_t, ptr %24, i32 0, i32 2
  store i32 %23, ptr %25, align 4, !tbaa !161
  %26 = load ptr, ptr %9, align 8, !tbaa !32
  %27 = load ptr, ptr %11, align 8, !tbaa !174
  %28 = getelementptr inbounds nuw %struct.dt_bauhaus_combobox_entry_t, ptr %27, i32 0, i32 3
  store ptr %26, ptr %28, align 8, !tbaa !275
  %29 = load ptr, ptr %10, align 8, !tbaa !32
  %30 = load ptr, ptr %11, align 8, !tbaa !174
  %31 = getelementptr inbounds nuw %struct.dt_bauhaus_combobox_entry_t, ptr %30, i32 0, i32 4
  store ptr %29, ptr %31, align 8, !tbaa !274
  br label %32

32:                                               ; preds = %15, %5
  %33 = load ptr, ptr %11, align 8, !tbaa !174
  call void @llvm.lifetime.end.p0(i64 8, ptr %11) #13
  ret ptr %33
}

; Function Attrs: inlinehint nounwind uwtable
define internal ptr @DT_BAUHAUS_WIDGET(ptr noundef %0) #4 {
  %2 = alloca ptr, align 8
  store ptr %0, ptr %2, align 8, !tbaa !32
  %3 = load ptr, ptr %2, align 8, !tbaa !32
  %4 = call i64 @dt_bh_get_type()
  %5 = call ptr @g_type_check_instance_cast(ptr noundef %3, i64 noundef %4)
  ret ptr %5
}

; Function Attrs: nounwind uwtable
define void @dt_bauhaus_combobox_insert_full(ptr noundef %0, ptr noundef %1, i32 noundef %2, ptr noundef %3, ptr noundef %4, i32 noundef %5) #0 {
  %7 = alloca ptr, align 8
  %8 = alloca ptr, align 8
  %9 = alloca i32, align 4
  %10 = alloca ptr, align 8
  %11 = alloca ptr, align 8
  %12 = alloca i32, align 4
  %13 = alloca ptr, align 8
  %14 = alloca i32, align 4
  %15 = alloca ptr, align 8
  %16 = alloca ptr, align 8
  store ptr %0, ptr %7, align 8, !tbaa !15
  store ptr %1, ptr %8, align 8, !tbaa !171
  store i32 %2, ptr %9, align 4, !tbaa !13
  store ptr %3, ptr %10, align 8, !tbaa !32
  store ptr %4, ptr %11, align 8, !tbaa !32
  store i32 %5, ptr %12, align 4, !tbaa !13
  call void @llvm.lifetime.start.p0(i64 8, ptr %13) #13
  %17 = load ptr, ptr %7, align 8, !tbaa !15
  %18 = call ptr @DT_BAUHAUS_WIDGET(ptr noundef %17)
  store ptr %18, ptr %13, align 8, !tbaa !17
  %19 = load ptr, ptr %13, align 8, !tbaa !17
  %20 = getelementptr inbounds nuw %struct._DtBauhausWidget, ptr %19, i32 0, i32 1
  %21 = load i32, ptr %20, align 8, !tbaa !139
  %22 = icmp ne i32 %21, 2
  br i1 %22, label %23, label %24

23:                                               ; preds = %6
  store i32 1, ptr %14, align 4
  br label %49

24:                                               ; preds = %6
  call void @llvm.lifetime.start.p0(i64 8, ptr %15) #13
  %25 = load ptr, ptr %13, align 8, !tbaa !17
  %26 = getelementptr inbounds nuw %struct._DtBauhausWidget, ptr %25, i32 0, i32 19
  store ptr %26, ptr %15, align 8, !tbaa !153
  call void @llvm.lifetime.start.p0(i64 8, ptr %16) #13
  %27 = load ptr, ptr %8, align 8, !tbaa !171
  %28 = load i32, ptr %9, align 4, !tbaa !13
  %29 = load ptr, ptr %10, align 8, !tbaa !32
  %30 = load ptr, ptr %11, align 8, !tbaa !32
  %31 = call ptr @_new_combobox_entry(ptr noundef %27, i32 noundef %28, i32 noundef 1, ptr noundef %29, ptr noundef %30)
  store ptr %31, ptr %16, align 8, !tbaa !174
  %32 = load ptr, ptr %16, align 8, !tbaa !174
  %33 = icmp ne ptr %32, null
  br i1 %33, label %34, label %40

34:                                               ; preds = %24
  %35 = load ptr, ptr %15, align 8, !tbaa !153
  %36 = getelementptr inbounds nuw %struct.dt_bauhaus_combobox_data_t, ptr %35, i32 0, i32 6
  %37 = load ptr, ptr %36, align 8, !tbaa !156
  %38 = load i32, ptr %12, align 4, !tbaa !13
  %39 = load ptr, ptr %16, align 8, !tbaa !174
  call void @g_ptr_array_insert(ptr noundef %37, i32 noundef %38, ptr noundef %39)
  br label %40

40:                                               ; preds = %34, %24
  %41 = load ptr, ptr %15, align 8, !tbaa !153
  %42 = getelementptr inbounds nuw %struct.dt_bauhaus_combobox_data_t, ptr %41, i32 0, i32 0
  %43 = load i32, ptr %42, align 8, !tbaa !163
  %44 = icmp slt i32 %43, 0
  br i1 %44, label %45, label %48

45:                                               ; preds = %40
  %46 = load ptr, ptr %15, align 8, !tbaa !153
  %47 = getelementptr inbounds nuw %struct.dt_bauhaus_combobox_data_t, ptr %46, i32 0, i32 0
  store i32 0, ptr %47, align 8, !tbaa !163
  br label %48

48:                                               ; preds = %45, %40
  call void @llvm.lifetime.end.p0(i64 8, ptr %16) #13
  call void @llvm.lifetime.end.p0(i64 8, ptr %15) #13
  store i32 0, ptr %14, align 4
  br label %49

49:                                               ; preds = %48, %23
  call void @llvm.lifetime.end.p0(i64 8, ptr %13) #13
  %50 = load i32, ptr %14, align 4
  switch i32 %50, label %52 [
    i32 0, label %51
    i32 1, label %51
  ]

51:                                               ; preds = %49, %49
  ret void

52:                                               ; preds = %49
  unreachable
}