; Function Attrs: nounwind uwtable
define void @dt_bauhaus_combobox_insert_full(ptr noundef %0, ptr noundef %1, i32 noundef %2, ptr noundef %3, ptr noundef %4, i32 noundef %5) local_unnamed_addr #0 {
  %7 = load atomic i64, ptr @dt_bh_get_type.static_g_define_type_id seq_cst, align 8
  %.not.i.i = icmp eq i64 %7, 0
  br i1 %.not.i.i, label %8, label %DT_BAUHAUS_WIDGET.exit

8:                                                ; preds = %6
  %9 = tail call i32 @g_once_init_enter(ptr noundef nonnull @dt_bh_get_type.static_g_define_type_id) #19
  %.not4.i.i = icmp eq i32 %9, 0
  br i1 %.not4.i.i, label %DT_BAUHAUS_WIDGET.exit, label %10

10:                                               ; preds = %8
  %11 = tail call fastcc i64 @dt_bh_get_type_once()
  tail call void @g_once_init_leave(ptr noundef nonnull @dt_bh_get_type.static_g_define_type_id, i64 noundef %11) #19
  br label %DT_BAUHAUS_WIDGET.exit

DT_BAUHAUS_WIDGET.exit:                           ; preds = %6, %8, %10
  %12 = load i64, ptr @dt_bh_get_type.static_g_define_type_id, align 8, !tbaa !6
  %13 = tail call ptr @g_type_check_instance_cast(ptr noundef %0, i64 noundef %12) #19
  %14 = getelementptr inbounds nuw i8, ptr %13, i64 40
  %15 = load i32, ptr %14, align 8, !tbaa !105
  %.not = icmp eq i32 %15, 2
  br i1 %.not, label %16, label %30

16:                                               ; preds = %DT_BAUHAUS_WIDGET.exit
  %17 = getelementptr inbounds nuw i8, ptr %13, i64 408
  %18 = tail call noalias dereferenceable_or_null(32) ptr @calloc(i64 noundef 1, i64 noundef 32) #21
  %.not.i = icmp eq ptr %18, null
  br i1 %.not.i, label %_new_combobox_entry.exit.thread, label %19

19:                                               ; preds = %16
  %20 = tail call noalias ptr @g_strdup(ptr noundef %1) #19
  store ptr %20, ptr %18, align 8, !tbaa !149
  %21 = getelementptr inbounds nuw i8, ptr %18, i64 8
  store i32 %2, ptr %21, align 8, !tbaa !151
  %22 = getelementptr inbounds nuw i8, ptr %18, i64 12
  store i32 1, ptr %22, align 4, !tbaa !135
  %23 = getelementptr inbounds nuw i8, ptr %18, i64 16
  store ptr %3, ptr %23, align 8, !tbaa !209
  %24 = getelementptr inbounds nuw i8, ptr %18, i64 24
  store ptr %4, ptr %24, align 8, !tbaa !226
  %25 = getelementptr inbounds nuw i8, ptr %13, i64 440
  %26 = load ptr, ptr %25, align 8, !tbaa !128
  tail call void @g_ptr_array_insert(ptr noundef %26, i32 noundef %5, ptr noundef nonnull %18) #19
  br label %_new_combobox_entry.exit.thread

_new_combobox_entry.exit.thread:                  ; preds = %16, %19
  %27 = load i32, ptr %17, align 8, !tbaa !137
  %28 = icmp slt i32 %27, 0
  br i1 %28, label %29, label %30

29:                                               ; preds = %_new_combobox_entry.exit.thread
  store i32 0, ptr %17, align 8, !tbaa !137
  br label %30

30:                                               ; preds = %_new_combobox_entry.exit.thread, %29, %DT_BAUHAUS_WIDGET.exit
  ret void
}